; Function Attrs: mustprogress nofree norecurse nosync nounwind willreturn memory(read, inaccessiblemem: write) uwtable
define dso_local noundef i32 @_ZNK4llvm6object15XCOFFObjectFile31getNumberOfSymbolTableEntries64Ev(ptr nocapture noundef nonnull readonly align 8 dereferenceable(96) %0) local_unnamed_addr #9 align 2 {
  %2 = getelementptr inbounds nuw i8, ptr %0, i64 48
  %3 = load ptr, ptr %2, align 8
  %4 = getelementptr inbounds nuw i8, ptr %3, i64 20
  call void @llvm.assume(i1 true) [ "align"(ptr %4, i64 1) ]
  %.0.copyload.i.i.i = load i32, ptr %4, align 1
  %5 = tail call noundef i32 @llvm.bswap.i32(i32 %.0.copyload.i.i.i)
  ret i32 %5
}